; Function Attrs: inlinehint mustprogress nounwind willreturn uwtable
define internal fastcc i32 @Cba_FonRight(ptr noundef captures(none) %0, i32 noundef range(i32 1, 0) %1) unnamed_addr #7 {
  %3 = getelementptr i8, ptr %0, i64 284
  %.val.i.i = load i32, ptr %3, align 4, !tbaa !22
  %4 = icmp slt i32 %.val.i.i, 1
  br i1 %4, label %Cba_NtkRangeRight.exit, label %5

5:                                                ; preds = %2
  %6 = getelementptr inbounds nuw i8, ptr %0, i64 280
  %7 = add nsw i32 %1, 1
  %.not.i.not.i.i.i = icmp slt i32 %1, %.val.i.i
  br i1 %.not.i.not.i.i.i, label %Cba_FonRange.exit, label %8

8:                                                ; preds = %5
  %9 = load i32, ptr %6, align 8, !tbaa !48
  %10 = shl nsw i32 %9, 1
  %.not.i.i.i = icmp slt i32 %1, %10
  br i1 %.not.i.i.i, label %22, label %11

11:                                               ; preds = %8
  %12 = getelementptr inbounds nuw i8, ptr %0, i64 288
  %13 = load ptr, ptr %12, align 8, !tbaa !23
  %.not9.i.i.i.i.i = icmp eq ptr %13, null
  %14 = zext nneg i32 %7 to i64
  %15 = shl nuw nsw i64 %14, 2
  br i1 %.not9.i.i.i.i.i, label %18, label %16

16:                                               ; preds = %11
  %17 = tail call ptr @realloc(ptr noundef nonnull %13, i64 noundef %15) #17
  br label %20

18:                                               ; preds = %11
  %19 = tail call noalias ptr @malloc(i64 noundef %15) #18
  br label %20

20:                                               ; preds = %18, %16
  %21 = phi ptr [ %17, %16 ], [ %19, %18 ]
  store ptr %21, ptr %12, align 8, !tbaa !23
  br label %Vec_IntGrow.exit.sink.split.i.i.i.i

22:                                               ; preds = %8
  %.not.i.i.not.i.i.i = icmp sgt i32 %9, %1
  br i1 %.not.i.i.not.i.i.i, label %Vec_IntGrow.exit.i.i.i.i, label %23

23:                                               ; preds = %22
  %24 = getelementptr inbounds nuw i8, ptr %0, i64 288
  %25 = load ptr, ptr %24, align 8, !tbaa !23
  %.not9.i21.i.i.i.i = icmp eq ptr %25, null
  %26 = zext nneg i32 %10 to i64
  %27 = shl nuw nsw i64 %26, 2
  br i1 %.not9.i21.i.i.i.i, label %30, label %28

28:                                               ; preds = %23
  %29 = tail call ptr @realloc(ptr noundef nonnull %25, i64 noundef %27) #17
  br label %32

30:                                               ; preds = %23
  %31 = tail call noalias ptr @malloc(i64 noundef %27) #18
  br label %32

32:                                               ; preds = %30, %28
  %33 = phi ptr [ %29, %28 ], [ %31, %30 ]
  store ptr %33, ptr %24, align 8, !tbaa !23
  br label %Vec_IntGrow.exit.sink.split.i.i.i.i

Vec_IntGrow.exit.sink.split.i.i.i.i:              ; preds = %32, %20
  %.sink.i.i.i.i = phi i32 [ %10, %32 ], [ %7, %20 ]
  store i32 %.sink.i.i.i.i, ptr %6, align 8, !tbaa !48
  %.pre.i.i.i = load i32, ptr %3, align 4, !tbaa !22
  br label %Vec_IntGrow.exit.i.i.i.i

Vec_IntGrow.exit.i.i.i.i:                         ; preds = %Vec_IntGrow.exit.sink.split.i.i.i.i, %22
  %34 = phi i32 [ %.pre.i.i.i, %Vec_IntGrow.exit.sink.split.i.i.i.i ], [ %.val.i.i, %22 ]
  %.not3.i.i.i = icmp sgt i32 %34, %1
  br i1 %.not3.i.i.i, label %._crit_edge.i.i.i.i, label %.lr.ph.i.i.i.i

.lr.ph.i.i.i.i:                                   ; preds = %Vec_IntGrow.exit.i.i.i.i
  %35 = getelementptr inbounds nuw i8, ptr %0, i64 288
  %36 = load ptr, ptr %35, align 8, !tbaa !23
  %37 = sext i32 %34 to i64
  %38 = shl nsw i64 %37, 2
  %scevgep.i.i.i.i = getelementptr i8, ptr %36, i64 %38
  %39 = sub i32 %1, %34
  %40 = zext i32 %39 to i64
  %41 = shl nuw nsw i64 %40, 2
  %42 = add nuw nsw i64 %41, 4
  tail call void @llvm.memset.p0.i64(ptr noundef nonnull align 4 dereferenceable(1) %scevgep.i.i.i.i, i8 0, i64 %42, i1 false), !tbaa !24
  br label %._crit_edge.i.i.i.i

._crit_edge.i.i.i.i:                              ; preds = %.lr.ph.i.i.i.i, %Vec_IntGrow.exit.i.i.i.i
  store i32 %7, ptr %3, align 4, !tbaa !22
  br label %Cba_FonRange.exit

Cba_FonRange.exit:                                ; preds = %5, %._crit_edge.i.i.i.i
  %43 = getelementptr i8, ptr %0, i64 288
  %.val.i.i.i = load ptr, ptr %43, align 8, !tbaa !23
  %44 = sext i32 %1 to i64
  %45 = getelementptr inbounds i32, ptr %.val.i.i.i, i64 %44
  %46 = load i32, ptr %45, align 4, !tbaa !24
  %.not.i = icmp ult i32 %46, 2
  br i1 %.not.i, label %Cba_NtkRangeRight.exit, label %47

47:                                               ; preds = %Cba_FonRange.exit
  %48 = load ptr, ptr %0, align 8, !tbaa !49
  %49 = getelementptr inbounds nuw i8, ptr %48, i64 40
  %50 = load ptr, ptr %49, align 8, !tbaa !56
  %51 = getelementptr inbounds nuw i8, ptr %50, i64 8
  %52 = load ptr, ptr %51, align 8, !tbaa !28
  %53 = shl nsw i32 %46, 1
  %54 = and i32 %53, -4
  %55 = getelementptr i8, ptr %52, i64 8
  %.val.i.i.i2 = load ptr, ptr %55, align 8, !tbaa !23
  %56 = sext i32 %54 to i64
  %57 = getelementptr inbounds i32, ptr %.val.i.i.i2, i64 %56
  %58 = getelementptr inbounds nuw i8, ptr %57, i64 4
  %59 = load i32, ptr %58, align 4, !tbaa !33
  br label %Cba_NtkRangeRight.exit

Cba_NtkRangeRight.exit:                           ; preds = %2, %Cba_FonRange.exit, %47
  %60 = phi i32 [ %59, %47 ], [ 0, %Cba_FonRange.exit ], [ 0, %2 ]
  ret i32 %60
}